; ModuleID = 'source-C-CXX/57/545.cpp'
source_filename = "source-C-CXX/57/545.cpp"
target datalayout = "e-m:e-p270:32:32-p271:32:32-p272:64:64-i64:64-f80:128-n8:16:32:64-S128"
target triple = "x86_64-pc-linux-gnu"

%"class.std::ios_base::Init" = type { i8 }
%"class.std::basic_istream" = type { i32 (...)**, i64, %"class.std::basic_ios" }
%"class.std::basic_ios" = type { %"class.std::ios_base", %"class.std::basic_ostream"*, i8, i8, %"class.std::basic_streambuf"*, %"class.std::ctype"*, %"class.std::num_put"*, %"class.std::num_get"* }
%"class.std::ios_base" = type { i32 (...)**, i64, i64, i32, i32, i32, %"struct.std::ios_base::_Callback_list"*, %"struct.std::ios_base::_Words", [8 x %"struct.std::ios_base::_Words"], i32, %"struct.std::ios_base::_Words"*, %"class.std::locale" }
%"struct.std::ios_base::_Callback_list" = type { %"struct.std::ios_base::_Callback_list"*, void (i32, %"class.std::ios_base"*, i32)*, i32, i32 }
%"struct.std::ios_base::_Words" = type { i8*, i64 }
%"class.std::locale" = type { %"class.std::locale::_Impl"* }
%"class.std::locale::_Impl" = type { i32, %"class.std::locale::facet"**, i64, %"class.std::locale::facet"**, i8** }
%"class.std::locale::facet" = type <{ i32 (...)**, i32, [4 x i8] }>
%"class.std::basic_ostream" = type { i32 (...)**, %"class.std::basic_ios" }
%"class.std::basic_streambuf" = type { i32 (...)**, i8*, i8*, i8*, i8*, i8*, i8*, %"class.std::locale" }
%"class.std::ctype" = type <{ %"class.std::locale::facet.base", [4 x i8], %struct.__locale_struct*, i8, [7 x i8], i32*, i32*, i16*, i8, [256 x i8], [256 x i8], i8, [6 x i8] }>
%"class.std::locale::facet.base" = type <{ i32 (...)**, i32 }>
%struct.__locale_struct = type { [13 x %struct.__locale_data*], i16*, i32*, i32*, [13 x i8*] }
%struct.__locale_data = type opaque
%"class.std::num_put" = type { %"class.std::locale::facet.base", [4 x i8] }
%"class.std::num_get" = type { %"class.std::locale::facet.base", [4 x i8] }

@_ZStL8__ioinit = internal global %"class.std::ios_base::Init" zeroinitializer, align 1
@__dso_handle = external hidden global i8
@_ZSt3cin = external global %"class.std::basic_istream", align 8
@_ZSt4cout = external global %"class.std::basic_ostream", align 8
@.str = private unnamed_addr constant [2 x i8] c"0\00", align 1
@.str.1 = private unnamed_addr constant [2 x i8] c"1\00", align 1
@llvm.global_ctors = appending global [1 x { i32, void ()*, i8* }] [{ i32, void ()*, i8* } { i32 65535, void ()* @_GLOBAL__sub_I_545.cpp, i8* null }]

declare void @_ZNSt8ios_base4InitC1Ev(%"class.std::ios_base::Init"* nonnull align 1 dereferenceable(1)) unnamed_addr #0

; Function Attrs: nounwind
declare void @_ZNSt8ios_base4InitD1Ev(%"class.std::ios_base::Init"* nonnull align 1 dereferenceable(1)) unnamed_addr #1

; Function Attrs: nofree nounwind
declare i32 @__cxa_atexit(void (i8*)*, i8*, i8*) local_unnamed_addr #2

; Function Attrs: mustprogress norecurse sspstrong uwtable
define dso_local i32 @main() local_unnamed_addr #3 {
  %1 = alloca i32, align 4
  %2 = alloca [100 x [100 x i8]], align 16
  %3 = bitcast i32* %1 to i8*
  call void @llvm.lifetime.start.p0i8(i64 4, i8* nonnull %3) #7
  %4 = getelementptr inbounds [100 x [100 x i8]], [100 x [100 x i8]]* %2, i64 0, i64 0, i64 0
  call void @llvm.lifetime.start.p0i8(i64 10000, i8* nonnull %4) #7
  %5 = call nonnull align 8 dereferenceable(16) %"class.std::basic_istream"* @_ZNSirsERi(%"class.std::basic_istream"* nonnull align 8 dereferenceable(16) @_ZSt3cin, i32* nonnull align 4 dereferenceable(4) %1)
  %6 = call i32 @_ZNSi3getEv(%"class.std::basic_istream"* nonnull align 8 dereferenceable(16) @_ZSt3cin)
  %7 = load i32, i32* %1, align 4, !tbaa !5
  %8 = icmp sgt i32 %7, 0
  br i1 %8, label %10, label %9

9:                                                ; preds = %103, %0
  call void @llvm.lifetime.end.p0i8(i64 10000, i8* nonnull %4) #7
  call void @llvm.lifetime.end.p0i8(i64 4, i8* nonnull %3) #7
  ret i32 0

10:                                               ; preds = %0, %103
  %11 = phi i64 [ %107, %103 ], [ 0, %0 ]
  %12 = getelementptr inbounds [100 x [100 x i8]], [100 x [100 x i8]]* %2, i64 0, i64 %11, i64 0
  %13 = load i8*, i8** bitcast (%"class.std::basic_istream"* @_ZSt3cin to i8**), align 8, !tbaa !9
  %14 = getelementptr i8, i8* %13, i64 -24
  %15 = bitcast i8* %14 to i64*
  %16 = load i64, i64* %15, align 8
  %17 = add nsw i64 %16, 240
  %18 = getelementptr inbounds i8, i8* bitcast (%"class.std::basic_istream"* @_ZSt3cin to i8*), i64 %17
  %19 = bitcast i8* %18 to %"class.std::ctype"**
  %20 = load %"class.std::ctype"*, %"class.std::ctype"** %19, align 8, !tbaa !11
  %21 = icmp eq %"class.std::ctype"* %20, null
  br i1 %21, label %22, label %23

22:                                               ; preds = %10
  call void @_ZSt16__throw_bad_castv() #8
  unreachable

23:                                               ; preds = %10
  %24 = getelementptr inbounds %"class.std::ctype", %"class.std::ctype"* %20, i64 0, i32 8
  %25 = load i8, i8* %24, align 8, !tbaa !15
  %26 = icmp eq i8 %25, 0
  br i1 %26, label %30, label %27

27:                                               ; preds = %23
  %28 = getelementptr inbounds %"class.std::ctype", %"class.std::ctype"* %20, i64 0, i32 9, i64 10
  %29 = load i8, i8* %28, align 1, !tbaa !17
  br label %36

30:                                               ; preds = %23
  call void @_ZNKSt5ctypeIcE13_M_widen_initEv(%"class.std::ctype"* nonnull align 8 dereferenceable(570) %20)
  %31 = bitcast %"class.std::ctype"* %20 to i8 (%"class.std::ctype"*, i8)***
  %32 = load i8 (%"class.std::ctype"*, i8)**, i8 (%"class.std::ctype"*, i8)*** %31, align 8, !tbaa !9
  %33 = getelementptr inbounds i8 (%"class.std::ctype"*, i8)*, i8 (%"class.std::ctype"*, i8)** %32, i64 6
  %34 = load i8 (%"class.std::ctype"*, i8)*, i8 (%"class.std::ctype"*, i8)** %33, align 8
  %35 = call signext i8 %34(%"class.std::ctype"* nonnull align 8 dereferenceable(570) %20, i8 signext 10)
  br label %36

36:                                               ; preds = %27, %30
  %37 = phi i8 [ %29, %27 ], [ %35, %30 ]
  %38 = call nonnull align 8 dereferenceable(16) %"class.std::basic_istream"* @_ZNSi7getlineEPclc(%"class.std::basic_istream"* nonnull align 8 dereferenceable(16) @_ZSt3cin, i8* nonnull %12, i64 100, i8 signext %37)
  br label %39

39:                                               ; preds = %76, %36
  %40 = phi i64 [ %77, %76 ], [ 0, %36 ]
  %41 = getelementptr inbounds [100 x [100 x i8]], [100 x [100 x i8]]* %2, i64 0, i64 %11, i64 %40
  %42 = load i8, i8* %41, align 1, !tbaa !17
  switch i8 %42, label %43 [
    i8 0, label %78
    i8 95, label %76
  ]

43:                                               ; preds = %39
  %44 = add i8 %42, -65
  %45 = icmp ugt i8 %44, 57
  br i1 %45, label %46, label %76

46:                                               ; preds = %43
  %47 = icmp eq i64 %40, 0
  %48 = add i8 %42, -48
  %49 = icmp ugt i8 %48, 9
  %50 = select i1 %47, i1 true, i1 %49
  br i1 %50, label %51, label %76

51:                                               ; preds = %46
  %52 = call nonnull align 8 dereferenceable(8) %"class.std::basic_ostream"* @_ZSt16__ostream_insertIcSt11char_traitsIcEERSt13basic_ostreamIT_T0_ES6_PKS3_l(%"class.std::basic_ostream"* nonnull align 8 dereferenceable(8) @_ZSt4cout, i8* nonnull getelementptr inbounds ([2 x i8], [2 x i8]* @.str, i64 0, i64 0), i64 1)
  %53 = load i8*, i8** bitcast (%"class.std::basic_ostream"* @_ZSt4cout to i8**), align 8, !tbaa !9
  %54 = getelementptr i8, i8* %53, i64 -24
  %55 = bitcast i8* %54 to i64*
  %56 = load i64, i64* %55, align 8
  %57 = add nsw i64 %56, 240
  %58 = getelementptr inbounds i8, i8* bitcast (%"class.std::basic_ostream"* @_ZSt4cout to i8*), i64 %57
  %59 = bitcast i8* %58 to %"class.std::ctype"**
  %60 = load %"class.std::ctype"*, %"class.std::ctype"** %59, align 8, !tbaa !11
  %61 = icmp eq %"class.std::ctype"* %60, null
  br i1 %61, label %62, label %63

62:                                               ; preds = %51
  call void @_ZSt16__throw_bad_castv() #8
  unreachable

63:                                               ; preds = %51
  %64 = getelementptr inbounds %"class.std::ctype", %"class.std::ctype"* %60, i64 0, i32 8
  %65 = load i8, i8* %64, align 8, !tbaa !15
  %66 = icmp eq i8 %65, 0
  br i1 %66, label %70, label %67

67:                                               ; preds = %63
  %68 = getelementptr inbounds %"class.std::ctype", %"class.std::ctype"* %60, i64 0, i32 9, i64 10
  %69 = load i8, i8* %68, align 1, !tbaa !17
  br label %103

70:                                               ; preds = %63
  call void @_ZNKSt5ctypeIcE13_M_widen_initEv(%"class.std::ctype"* nonnull align 8 dereferenceable(570) %60)
  %71 = bitcast %"class.std::ctype"* %60 to i8 (%"class.std::ctype"*, i8)***
  %72 = load i8 (%"class.std::ctype"*, i8)**, i8 (%"class.std::ctype"*, i8)*** %71, align 8, !tbaa !9
  %73 = getelementptr inbounds i8 (%"class.std::ctype"*, i8)*, i8 (%"class.std::ctype"*, i8)** %72, i64 6
  %74 = load i8 (%"class.std::ctype"*, i8)*, i8 (%"class.std::ctype"*, i8)** %73, align 8
  %75 = call signext i8 %74(%"class.std::ctype"* nonnull align 8 dereferenceable(570) %60, i8 signext 10)
  br label %103

76:                                               ; preds = %46, %39, %43
  %77 = add nuw i64 %40, 1
  br label %39, !llvm.loop !18

78:                                               ; preds = %39
  %79 = call nonnull align 8 dereferenceable(8) %"class.std::basic_ostream"* @_ZSt16__ostream_insertIcSt11char_traitsIcEERSt13basic_ostreamIT_T0_ES6_PKS3_l(%"class.std::basic_ostream"* nonnull align 8 dereferenceable(8) @_ZSt4cout, i8* nonnull getelementptr inbounds ([2 x i8], [2 x i8]* @.str.1, i64 0, i64 0), i64 1)
  %80 = load i8*, i8** bitcast (%"class.std::basic_ostream"* @_ZSt4cout to i8**), align 8, !tbaa !9
  %81 = getelementptr i8, i8* %80, i64 -24
  %82 = bitcast i8* %81 to i64*
  %83 = load i64, i64* %82, align 8
  %84 = add nsw i64 %83, 240
  %85 = getelementptr inbounds i8, i8* bitcast (%"class.std::basic_ostream"* @_ZSt4cout to i8*), i64 %84
  %86 = bitcast i8* %85 to %"class.std::ctype"**
  %87 = load %"class.std::ctype"*, %"class.std::ctype"** %86, align 8, !tbaa !11
  %88 = icmp eq %"class.std::ctype"* %87, null
  br i1 %88, label %89, label %90

89:                                               ; preds = %78
  call void @_ZSt16__throw_bad_castv() #8
  unreachable

90:                                               ; preds = %78
  %91 = getelementptr inbounds %"class.std::ctype", %"class.std::ctype"* %87, i64 0, i32 8
  %92 = load i8, i8* %91, align 8, !tbaa !15
  %93 = icmp eq i8 %92, 0
  br i1 %93, label %97, label %94

94:                                               ; preds = %90
  %95 = getelementptr inbounds %"class.std::ctype", %"class.std::ctype"* %87, i64 0, i32 9, i64 10
  %96 = load i8, i8* %95, align 1, !tbaa !17
  br label %103

97:                                               ; preds = %90
  call void @_ZNKSt5ctypeIcE13_M_widen_initEv(%"class.std::ctype"* nonnull align 8 dereferenceable(570) %87)
  %98 = bitcast %"class.std::ctype"* %87 to i8 (%"class.std::ctype"*, i8)***
  %99 = load i8 (%"class.std::ctype"*, i8)**, i8 (%"class.std::ctype"*, i8)*** %98, align 8, !tbaa !9
  %100 = getelementptr inbounds i8 (%"class.std::ctype"*, i8)*, i8 (%"class.std::ctype"*, i8)** %99, i64 6
  %101 = load i8 (%"class.std::ctype"*, i8)*, i8 (%"class.std::ctype"*, i8)** %100, align 8
  %102 = call signext i8 %101(%"class.std::ctype"* nonnull align 8 dereferenceable(570) %87, i8 signext 10)
  br label %103

103:                                              ; preds = %97, %94, %70, %67
  %104 = phi i8 [ %69, %67 ], [ %75, %70 ], [ %96, %94 ], [ %102, %97 ]
  %105 = call nonnull align 8 dereferenceable(8) %"class.std::basic_ostream"* @_ZNSo3putEc(%"class.std::basic_ostream"* nonnull align 8 dereferenceable(8) @_ZSt4cout, i8 signext %104)
  %106 = call nonnull align 8 dereferenceable(8) %"class.std::basic_ostream"* @_ZNSo5flushEv(%"class.std::basic_ostream"* nonnull align 8 dereferenceable(8) %105)
  %107 = add nuw nsw i64 %11, 1
  %108 = load i32, i32* %1, align 4, !tbaa !5
  %109 = sext i32 %108 to i64
  %110 = icmp slt i64 %107, %109
  br i1 %110, label %10, label %9, !llvm.loop !20
}

; Function Attrs: argmemonly mustprogress nofree nosync nounwind willreturn
declare void @llvm.lifetime.start.p0i8(i64 immarg, i8* nocapture) #4

declare nonnull align 8 dereferenceable(16) %"class.std::basic_istream"* @_ZNSirsERi(%"class.std::basic_istream"* nonnull align 8 dereferenceable(16), i32* nonnull align 4 dereferenceable(4)) local_unnamed_addr #0

declare i32 @_ZNSi3getEv(%"class.std::basic_istream"* nonnull align 8 dereferenceable(16)) local_unnamed_addr #0

; Function Attrs: argmemonly mustprogress nofree nosync nounwind willreturn
declare void @llvm.lifetime.end.p0i8(i64 immarg, i8* nocapture) #4

declare nonnull align 8 dereferenceable(16) %"class.std::basic_istream"* @_ZNSi7getlineEPclc(%"class.std::basic_istream"* nonnull align 8 dereferenceable(16), i8*, i64, i8 signext) local_unnamed_addr #0

; Function Attrs: noreturn
declare void @_ZSt16__throw_bad_castv() local_unnamed_addr #5

declare void @_ZNKSt5ctypeIcE13_M_widen_initEv(%"class.std::ctype"* nonnull align 8 dereferenceable(570)) local_unnamed_addr #0

declare nonnull align 8 dereferenceable(8) %"class.std::basic_ostream"* @_ZSt16__ostream_insertIcSt11char_traitsIcEERSt13basic_ostreamIT_T0_ES6_PKS3_l(%"class.std::basic_ostream"* nonnull align 8 dereferenceable(8), i8*, i64) local_unnamed_addr #0

declare nonnull align 8 dereferenceable(8) %"class.std::basic_ostream"* @_ZNSo3putEc(%"class.std::basic_ostream"* nonnull align 8 dereferenceable(8), i8 signext) local_unnamed_addr #0

declare nonnull align 8 dereferenceable(8) %"class.std::basic_ostream"* @_ZNSo5flushEv(%"class.std::basic_ostream"* nonnull align 8 dereferenceable(8)) local_unnamed_addr #0

; Function Attrs: sspstrong uwtable
define internal void @_GLOBAL__sub_I_545.cpp() #6 section ".text.startup" {
  tail call void @_ZNSt8ios_base4InitC1Ev(%"class.std::ios_base::Init"* nonnull align 1 dereferenceable(1) @_ZStL8__ioinit)
  %1 = tail call i32 @__cxa_atexit(void (i8*)* bitcast (void (%"class.std::ios_base::Init"*)* @_ZNSt8ios_base4InitD1Ev to void (i8*)*), i8* getelementptr inbounds (%"class.std::ios_base::Init", %"class.std::ios_base::Init"* @_ZStL8__ioinit, i64 0, i32 0), i8* nonnull @__dso_handle) #7
  ret void
}


!llvm.module.flags = !{!0, !1, !2, !3}
!llvm.ident = !{!4}

!0 = !{i32 1, !"wchar_size", i32 4}
!1 = !{i32 7, !"PIC Level", i32 2}
!2 = !{i32 7, !"PIE Level", i32 2}
!3 = !{i32 7, !"uwtable", i32 1}
!4 = !{!"clang version 13.0.0"}
!5 = !{!6, !6, i64 0}
!6 = !{!"int", !7, i64 0}
!7 = !{!"omnipotent char", !8, i64 0}
!8 = !{!"Simple C++ TBAA"}
!9 = !{!10, !10, i64 0}
!10 = !{!"vtable pointer", !8, i64 0}
!11 = !{!12, !13, i64 240}
!12 = !{!"_ZTSSt9basic_iosIcSt11char_traitsIcEE", !13, i64 216, !7, i64 224, !14, i64 225, !13, i64 232, !13, i64 240, !13, i64 248, !13, i64 256}
!13 = !{!"any pointer", !7, i64 0}
!14 = !{!"bool", !7, i64 0}
!15 = !{!16, !7, i64 56}
!16 = !{!"_ZTSSt5ctypeIcE", !13, i64 16, !14, i64 24, !13, i64 32, !13, i64 40, !13, i64 48, !7, i64 56, !7, i64 57, !7, i64 313, !7, i64 569}
!17 = !{!7, !7, i64 0}
!18 = distinct !{!18, !19}
!19 = !{!"llvm.loop.mustprogress"}
!20 = distinct !{!20, !19}
